target datalayout = "e-m:e-p270:32:32-p271:32:32-p272:64:64-i64:64-i128:128-f80:128-n8:16:32:64-S128"
target triple = "x86_64-pc-linux-gnu"

%struct.Node = type { i32 }
%struct.List = type { i32, i32, i32, ptr, [0 x %union.ListCell] }
%union.ListCell = type { ptr }
%struct.Expr = type { i32 }
%struct.ForBothState = type { ptr, ptr, i32 }
%struct.OpExpr = type { %struct.Expr, i32, i32, i32, i8, i32, i32, ptr, i32 }
%struct.RowCompareExpr = type { %struct.Expr, i32, ptr, ptr, ptr, ptr, ptr }
%struct.ScalarArrayOpExpr = type { %struct.Expr, i32, i32, i32, i32, i8, i32, ptr, i32 }
%struct.NullTest = type { %struct.Expr, ptr, i32, i8, i32 }

@.str.1 = private unnamed_addr constant [13 x i8] c"createplan.c\00", align 1
@.str.4 = private unnamed_addr constant [31 x i8] c"unsupported indexqual type: %d\00", align 1
@__func__.fix_indexqual_clause = private unnamed_addr constant [21 x i8] c"fix_indexqual_clause\00", align 1

; Function Attrs: inlinehint nounwind uwtable
define internal ptr @list_nth_cell(ptr noundef %0, i32 noundef %1) #4 {
  %3 = alloca ptr, align 8
  %4 = alloca i32, align 4
  store ptr %0, ptr %3, align 8
  store i32 %1, ptr %4, align 4
  %5 = load ptr, ptr %3, align 8
  %6 = getelementptr inbounds nuw %struct.List, ptr %5, i32 0, i32 3
  %7 = load ptr, ptr %6, align 8
  %8 = load i32, ptr %4, align 4
  %9 = sext i32 %8 to i64
  %10 = getelementptr inbounds %union.ListCell, ptr %7, i64 %9
  ret ptr %10
}

; Function Attrs: nounwind uwtable
define internal ptr @replace_nestloop_params(ptr noundef %0, ptr noundef %1) #0 {
  %3 = alloca ptr, align 8
  %4 = alloca ptr, align 8
  store ptr %0, ptr %3, align 8
  store ptr %1, ptr %4, align 8
  %5 = load ptr, ptr %4, align 8
  %6 = load ptr, ptr %3, align 8
  %7 = call ptr @replace_nestloop_params_mutator(ptr noundef %5, ptr noundef %6)
  ret ptr %7
}

; Function Attrs: nounwind uwtable
define internal ptr @fix_indexqual_clause(ptr noundef %0, ptr noundef %1, i32 noundef %2, ptr noundef %3, ptr noundef %4) #0 {
  %6 = alloca ptr, align 8
  %7 = alloca ptr, align 8
  %8 = alloca i32, align 4
  %9 = alloca ptr, align 8
  %10 = alloca ptr, align 8
  %11 = alloca ptr, align 8
  %12 = alloca ptr, align 8
  %13 = alloca ptr, align 8
  %14 = alloca ptr, align 8
  %15 = alloca %struct.ForBothState, align 8
  %16 = alloca ptr, align 8
  %17 = alloca ptr, align 8
  store ptr %0, ptr %6, align 8
  store ptr %1, ptr %7, align 8
  store i32 %2, ptr %8, align 4
  store ptr %3, ptr %9, align 8
  store ptr %4, ptr %10, align 8
  %18 = load ptr, ptr %6, align 8
  %19 = load ptr, ptr %9, align 8
  %20 = call ptr @replace_nestloop_params(ptr noundef %18, ptr noundef %19)
  store ptr %20, ptr %9, align 8
  %21 = load ptr, ptr %9, align 8
  %22 = getelementptr inbounds nuw %struct.Node, ptr %21, i32 0, i32 0
  %23 = load i32, ptr %22, align 4
  %24 = icmp eq i32 %23, 17
  br i1 %24, label %25, label %39

25:                                               ; preds = %5
  call void @llvm.lifetime.start.p0(i64 8, ptr %11) #10
  %26 = load ptr, ptr %9, align 8
  store ptr %26, ptr %11, align 8
  %27 = load ptr, ptr %11, align 8
  %28 = getelementptr inbounds nuw %struct.OpExpr, ptr %27, i32 0, i32 7
  %29 = load ptr, ptr %28, align 8
  %30 = call ptr @list_nth_cell(ptr noundef %29, i32 noundef 0)
  %31 = load ptr, ptr %30, align 8
  %32 = load ptr, ptr %7, align 8
  %33 = load i32, ptr %8, align 4
  %34 = call ptr @fix_indexqual_operand(ptr noundef %31, ptr noundef %32, i32 noundef %33)
  %35 = load ptr, ptr %11, align 8
  %36 = getelementptr inbounds nuw %struct.OpExpr, ptr %35, i32 0, i32 7
  %37 = load ptr, ptr %36, align 8
  %38 = call ptr @list_nth_cell(ptr noundef %37, i32 noundef 0)
  store ptr %34, ptr %38, align 8
  call void @llvm.lifetime.end.p0(i64 8, ptr %11) #10
  br label %172

39:                                               ; preds = %5
  %40 = load ptr, ptr %9, align 8
  %41 = getelementptr inbounds nuw %struct.Node, ptr %40, i32 0, i32 0
  %42 = load i32, ptr %41, align 4
  %43 = icmp eq i32 %42, 37
  br i1 %43, label %44, label %122

44:                                               ; preds = %39
  call void @llvm.lifetime.start.p0(i64 8, ptr %12) #10
  %45 = load ptr, ptr %9, align 8
  store ptr %45, ptr %12, align 8
  call void @llvm.lifetime.start.p0(i64 8, ptr %13) #10
  call void @llvm.lifetime.start.p0(i64 8, ptr %14) #10
  call void @llvm.lifetime.start.p0(i64 24, ptr %15) #10
  %46 = getelementptr inbounds nuw %struct.ForBothState, ptr %15, i32 0, i32 0
  %47 = load ptr, ptr %12, align 8
  %48 = getelementptr inbounds nuw %struct.RowCompareExpr, ptr %47, i32 0, i32 5
  %49 = load ptr, ptr %48, align 8
  store ptr %49, ptr %46, align 8
  %50 = getelementptr inbounds nuw %struct.ForBothState, ptr %15, i32 0, i32 1
  %51 = load ptr, ptr %10, align 8
  store ptr %51, ptr %50, align 8
  %52 = getelementptr inbounds nuw %struct.ForBothState, ptr %15, i32 0, i32 2
  store i32 0, ptr %52, align 8
  %53 = getelementptr i8, ptr %15, i64 20
  call void @llvm.memset.p0.i64(ptr align 4 %53, i8 0, i64 4, i1 false)
  br label %54

54:                                               ; preds = %117, %44
  %55 = getelementptr inbounds nuw %struct.ForBothState, ptr %15, i32 0, i32 0
  %56 = load ptr, ptr %55, align 8
  %57 = icmp ne ptr %56, null
  br i1 %57, label %58, label %75

58:                                               ; preds = %54
  %59 = getelementptr inbounds nuw %struct.ForBothState, ptr %15, i32 0, i32 2
  %60 = load i32, ptr %59, align 8
  %61 = getelementptr inbounds nuw %struct.ForBothState, ptr %15, i32 0, i32 0
  %62 = load ptr, ptr %61, align 8
  %63 = getelementptr inbounds nuw %struct.List, ptr %62, i32 0, i32 1
  %64 = load i32, ptr %63, align 4
  %65 = icmp slt i32 %60, %64
  br i1 %65, label %66, label %75

66:                                               ; preds = %58
  %67 = getelementptr inbounds nuw %struct.ForBothState, ptr %15, i32 0, i32 0
  %68 = load ptr, ptr %67, align 8
  %69 = getelementptr inbounds nuw %struct.List, ptr %68, i32 0, i32 3
  %70 = load ptr, ptr %69, align 8
  %71 = getelementptr inbounds nuw %struct.ForBothState, ptr %15, i32 0, i32 2
  %72 = load i32, ptr %71, align 8
  %73 = sext i32 %72 to i64
  %74 = getelementptr inbounds %union.ListCell, ptr %70, i64 %73
  br label %76

75:                                               ; preds = %58, %54
  br label %76

76:                                               ; preds = %75, %66
  %77 = phi ptr [ %74, %66 ], [ null, %75 ]
  store ptr %77, ptr %13, align 8
  %78 = getelementptr inbounds nuw %struct.ForBothState, ptr %15, i32 0, i32 1
  %79 = load ptr, ptr %78, align 8
  %80 = icmp ne ptr %79, null
  br i1 %80, label %81, label %98

81:                                               ; preds = %76
  %82 = getelementptr inbounds nuw %struct.ForBothState, ptr %15, i32 0, i32 2
  %83 = load i32, ptr %82, align 8
  %84 = getelementptr inbounds nuw %struct.ForBothState, ptr %15, i32 0, i32 1
  %85 = load ptr, ptr %84, align 8
  %86 = getelementptr inbounds nuw %struct.List, ptr %85, i32 0, i32 1
  %87 = load i32, ptr %86, align 4
  %88 = icmp slt i32 %83, %87
  br i1 %88, label %89, label %98

89:                                               ; preds = %81
  %90 = getelementptr inbounds nuw %struct.ForBothState, ptr %15, i32 0, i32 1
  %91 = load ptr, ptr %90, align 8
  %92 = getelementptr inbounds nuw %struct.List, ptr %91, i32 0, i32 3
  %93 = load ptr, ptr %92, align 8
  %94 = getelementptr inbounds nuw %struct.ForBothState, ptr %15, i32 0, i32 2
  %95 = load i32, ptr %94, align 8
  %96 = sext i32 %95 to i64
  %97 = getelementptr inbounds %union.ListCell, ptr %93, i64 %96
  br label %99

98:                                               ; preds = %81, %76
  br label %99

99:                                               ; preds = %98, %89
  %100 = phi ptr [ %97, %89 ], [ null, %98 ]
  store ptr %100, ptr %14, align 8
  %101 = load ptr, ptr %13, align 8
  %102 = icmp ne ptr %101, null
  br i1 %102, label %103, label %106

103:                                              ; preds = %99
  %104 = load ptr, ptr %14, align 8
  %105 = icmp ne ptr %104, null
  br label %106

106:                                              ; preds = %103, %99
  %107 = phi i1 [ false, %99 ], [ %105, %103 ]
  br i1 %107, label %109, label %108

108:                                              ; preds = %106
  call void @llvm.lifetime.end.p0(i64 24, ptr %15) #10
  br label %121

109:                                              ; preds = %106
  %110 = load ptr, ptr %13, align 8
  %111 = load ptr, ptr %110, align 8
  %112 = load ptr, ptr %7, align 8
  %113 = load ptr, ptr %14, align 8
  %114 = load i32, ptr %113, align 8
  %115 = call ptr @fix_indexqual_operand(ptr noundef %111, ptr noundef %112, i32 noundef %114)
  %116 = load ptr, ptr %13, align 8
  store ptr %115, ptr %116, align 8
  br label %117

117:                                              ; preds = %109
  %118 = getelementptr inbounds nuw %struct.ForBothState, ptr %15, i32 0, i32 2
  %119 = load i32, ptr %118, align 8
  %120 = add i32 %119, 1
  store i32 %120, ptr %118, align 8
  br label %54, !llvm.loop !47

121:                                              ; preds = %108
  call void @llvm.lifetime.end.p0(i64 8, ptr %14) #10
  call void @llvm.lifetime.end.p0(i64 8, ptr %13) #10
  call void @llvm.lifetime.end.p0(i64 8, ptr %12) #10
  br label %171

122:                                              ; preds = %39
  %123 = load ptr, ptr %9, align 8
  %124 = getelementptr inbounds nuw %struct.Node, ptr %123, i32 0, i32 0
  %125 = load i32, ptr %124, align 4
  %126 = icmp eq i32 %125, 20
  br i1 %126, label %127, label %141

127:                                              ; preds = %122
  call void @llvm.lifetime.start.p0(i64 8, ptr %16) #10
  %128 = load ptr, ptr %9, align 8
  store ptr %128, ptr %16, align 8
  %129 = load ptr, ptr %16, align 8
  %130 = getelementptr inbounds nuw %struct.ScalarArrayOpExpr, ptr %129, i32 0, i32 7
  %131 = load ptr, ptr %130, align 8
  %132 = call ptr @list_nth_cell(ptr noundef %131, i32 noundef 0)
  %133 = load ptr, ptr %132, align 8
  %134 = load ptr, ptr %7, align 8
  %135 = load i32, ptr %8, align 4
  %136 = call ptr @fix_indexqual_operand(ptr noundef %133, ptr noundef %134, i32 noundef %135)
  %137 = load ptr, ptr %16, align 8
  %138 = getelementptr inbounds nuw %struct.ScalarArrayOpExpr, ptr %137, i32 0, i32 7
  %139 = load ptr, ptr %138, align 8
  %140 = call ptr @list_nth_cell(ptr noundef %139, i32 noundef 0)
  store ptr %136, ptr %140, align 8
  call void @llvm.lifetime.end.p0(i64 8, ptr %16) #10
  br label %170

141:                                              ; preds = %122
  %142 = load ptr, ptr %9, align 8
  %143 = getelementptr inbounds nuw %struct.Node, ptr %142, i32 0, i32 0
  %144 = load i32, ptr %143, align 4
  %145 = icmp eq i32 %144, 52
  br i1 %145, label %146, label %156

146:                                              ; preds = %141
  call void @llvm.lifetime.start.p0(i64 8, ptr %17) #10
  %147 = load ptr, ptr %9, align 8
  store ptr %147, ptr %17, align 8
  %148 = load ptr, ptr %17, align 8
  %149 = getelementptr inbounds nuw %struct.NullTest, ptr %148, i32 0, i32 1
  %150 = load ptr, ptr %149, align 8
  %151 = load ptr, ptr %7, align 8
  %152 = load i32, ptr %8, align 4
  %153 = call ptr @fix_indexqual_operand(ptr noundef %150, ptr noundef %151, i32 noundef %152)
  %154 = load ptr, ptr %17, align 8
  %155 = getelementptr inbounds nuw %struct.NullTest, ptr %154, i32 0, i32 1
  store ptr %153, ptr %155, align 8
  call void @llvm.lifetime.end.p0(i64 8, ptr %17) #10
  br label %169

156:                                              ; preds = %141
  br label %157

157:                                              ; preds = %156
  br i1 true, label %158, label %160

158:                                              ; preds = %157
  %159 = call zeroext i1 @errstart_cold(i32 noundef 21, ptr noundef null) #11
  br i1 %159, label %162, label %167

160:                                              ; preds = %157
  %161 = call zeroext i1 @errstart(i32 noundef 21, ptr noundef null)
  br i1 %161, label %162, label %167

162:                                              ; preds = %160, %158
  %163 = load ptr, ptr %9, align 8
  %164 = getelementptr inbounds nuw %struct.Node, ptr %163, i32 0, i32 0
  %165 = load i32, ptr %164, align 4
  %166 = call i32 (ptr, ...) @errmsg_internal(ptr noundef @.str.4, i32 noundef %165)
  call void @errfinish(ptr noundef @.str.1, i32 noundef 5194, ptr noundef @__func__.fix_indexqual_clause)
  br label %167

167:                                              ; preds = %162, %160, %158
  unreachable

168:                                              ; No predecessors!
  br label %169

169:                                              ; preds = %168, %146
  br label %170

170:                                              ; preds = %169, %127
  br label %171

171:                                              ; preds = %170, %121
  br label %172

172:                                              ; preds = %171, %25
  %173 = load ptr, ptr %9, align 8
  ret ptr %173
}