; Function Attrs: nounwind uwtable
define internal fastcc noundef ptr @fix_indexqual_clause(ptr noundef %0, ptr noundef readonly captures(none) %1, i32 noundef %2, ptr noundef %3, ptr noundef readonly captures(address_is_null) %4) unnamed_addr #0 {
  %6 = tail call ptr @replace_nestloop_params_mutator(ptr noundef %3, ptr noundef %0)
  %7 = load i32, ptr %6, align 4
  switch i32 %7, label %56 [
    i32 17, label %8
    i32 37, label %16
    i32 20, label %44
    i32 52, label %52
  ]

8:                                                ; preds = %5
  %9 = getelementptr inbounds nuw i8, ptr %6, i64 32
  %10 = load ptr, ptr %9, align 8
  %11 = getelementptr i8, ptr %10, i64 16
  %.val46 = load ptr, ptr %11, align 8
  %12 = load ptr, ptr %.val46, align 8
  %13 = tail call fastcc ptr @fix_indexqual_operand(ptr noundef %12, ptr noundef %1, i32 noundef %2)
  %14 = load ptr, ptr %9, align 8
  %15 = getelementptr i8, ptr %14, i64 16
  %.val45 = load ptr, ptr %15, align 8
  store ptr %13, ptr %.val45, align 8
  br label %.thread

16:                                               ; preds = %5
  %17 = getelementptr inbounds nuw i8, ptr %6, i64 32
  %18 = load ptr, ptr %17, align 8
  %19 = getelementptr inbounds nuw i8, ptr %4, i64 4
  %.not = icmp eq ptr %18, null
  %.not43 = icmp eq ptr %4, null
  %20 = getelementptr inbounds nuw i8, ptr %18, i64 4
  %21 = getelementptr inbounds nuw i8, ptr %18, i64 16
  %22 = getelementptr inbounds nuw i8, ptr %4, i64 16
  %brmerge = select i1 %.not43, i1 true, i1 %.not
  br i1 %brmerge, label %.thread, label %.split.split

.split.split:                                     ; preds = %16, %39
  %indvars.iv = phi i64 [ %indvars.iv.next, %39 ], [ 0, %16 ]
  %23 = load i32, ptr %20, align 4
  %24 = sext i32 %23 to i64
  %25 = icmp slt i64 %indvars.iv, %24
  br i1 %25, label %26, label %29

26:                                               ; preds = %.split.split
  %27 = load ptr, ptr %21, align 8
  %28 = getelementptr inbounds nuw %union.ListCell, ptr %27, i64 %indvars.iv
  br label %29

29:                                               ; preds = %.split.split, %26
  %30 = phi ptr [ %28, %26 ], [ null, %.split.split ]
  %31 = load i32, ptr %19, align 4
  %32 = sext i32 %31 to i64
  %33 = icmp slt i64 %indvars.iv, %32
  br i1 %33, label %34, label %.thread

34:                                               ; preds = %29
  %35 = load ptr, ptr %22, align 8
  %36 = icmp ne ptr %30, null
  %37 = icmp ne ptr %35, null
  %38 = select i1 %36, i1 %37, i1 false
  br i1 %38, label %39, label %.thread

39:                                               ; preds = %34
  %40 = getelementptr inbounds nuw %union.ListCell, ptr %35, i64 %indvars.iv
  %41 = load ptr, ptr %30, align 8
  %42 = load i32, ptr %40, align 8
  %43 = tail call fastcc ptr @fix_indexqual_operand(ptr noundef %41, ptr noundef %1, i32 noundef %42)
  store ptr %43, ptr %30, align 8
  %indvars.iv.next = add nuw nsw i64 %indvars.iv, 1
  br label %.split.split, !llvm.loop !21

44:                                               ; preds = %5
  %45 = getelementptr inbounds nuw i8, ptr %6, i64 32
  %46 = load ptr, ptr %45, align 8
  %47 = getelementptr i8, ptr %46, i64 16
  %.val44 = load ptr, ptr %47, align 8
  %48 = load ptr, ptr %.val44, align 8
  %49 = tail call fastcc ptr @fix_indexqual_operand(ptr noundef %48, ptr noundef %1, i32 noundef %2)
  %50 = load ptr, ptr %45, align 8
  %51 = getelementptr i8, ptr %50, i64 16
  %.val = load ptr, ptr %51, align 8
  store ptr %49, ptr %.val, align 8
  br label %.thread

52:                                               ; preds = %5
  %53 = getelementptr inbounds nuw i8, ptr %6, i64 8
  %54 = load ptr, ptr %53, align 8
  %55 = tail call fastcc ptr @fix_indexqual_operand(ptr noundef %54, ptr noundef %1, i32 noundef %2)
  store ptr %55, ptr %53, align 8
  br label %.thread

56:                                               ; preds = %5
  %57 = tail call zeroext i1 @errstart_cold(i32 noundef 21, ptr noundef null) #13
  tail call void @llvm.assume(i1 %57)
  %58 = load i32, ptr %6, align 4
  %59 = tail call i32 (ptr, ...) @errmsg_internal(ptr noundef nonnull @.str.4, i32 noundef %58) #12
  tail call void @errfinish(ptr noundef nonnull @.str.1, i32 noundef 5194, ptr noundef nonnull @__func__.fix_indexqual_clause) #12
  unreachable

.thread:                                          ; preds = %29, %34, %16, %52, %44, %8
  ret ptr %6
}